target datalayout = "e-m:e-p270:32:32-p271:32:32-p272:64:64-i64:64-i128:128-f80:128-n8:16:32:64-S128"
target triple = "x86_64-pc-linux-gnu"

%struct.reassembly_table = type { ptr, ptr, ptr, ptr, ptr }
%struct.reassembly_table_functions = type { ptr, ptr, ptr, ptr, ptr, ptr }

@proto_register_docsis.ett = internal global [5 x ptr] [ptr @ett_docsis, ptr @ett_ehdr, ptr @ett_docsis_fragment, ptr @ett_docsis_fragments, ptr @ett_addr], align 16
@.str.134 = private unnamed_addr constant [7 x i8] c"DOCSIS\00", align 1
@.str.135 = private unnamed_addr constant [7 x i8] c"docsis\00", align 1
@proto_docsis = internal global i32 0, align 4
@.str.136 = private unnamed_addr constant [10 x i8] c"check_fcs\00", align 1
@.str.137 = private unnamed_addr constant [41 x i8] c"Validate the DOCSIS checksum if possible\00", align 1
@.str.138 = private unnamed_addr constant [53 x i8] c"Whether or not to validate the Header Check Sequence\00", align 1
@docsis_check_fcs = internal global i8 1, align 1
@.str.139 = private unnamed_addr constant [25 x i8] c"dissect_encrypted_frames\00", align 1
@.str.140 = private unnamed_addr constant [26 x i8] c"Ignore EH 'encrypted' bit\00", align 1
@.str.141 = private unnamed_addr constant [62 x i8] c"Whether or not to attempt to dissect encrypted DOCSIS payload\00", align 1
@docsis_dissect_encrypted_frames = internal global i8 0, align 1
@docsis_handle = internal global ptr null, align 8
@docsis_reassembly_table = internal global %struct.reassembly_table zeroinitializer, align 8
@addresses_reassembly_table_functions = external constant %struct.reassembly_table_functions, align 8

; Function Attrs: null_pointer_is_valid sspstrong uwtable
define hidden void @proto_register_docsis() #0 {
  %1 = alloca ptr, align 8
  %2 = alloca ptr, align 8
  call void @llvm.lifetime.start.p0(i64 8, ptr %1) #4
  call void @llvm.lifetime.start.p0(i64 8, ptr %2) #4
  %3 = call i32 @proto_register_protocol(ptr noundef @.str.134, ptr noundef @.str.134, ptr noundef @.str.135)
  store i32 %3, ptr @proto_docsis, align 4
  %4 = load i32, ptr @proto_docsis, align 4
  call void @proto_register_field_array(i32 noundef %4, ptr noundef @proto_register_docsis.hf, i32 noundef 56)
  call void @proto_register_subtree_array(ptr noundef @proto_register_docsis.ett, i32 noundef 5)
  %5 = load i32, ptr @proto_docsis, align 4
  %6 = call ptr @expert_register_protocol(i32 noundef %5)
  store ptr %6, ptr %2, align 8
  %7 = load ptr, ptr %2, align 8
  call void @expert_register_field_array(ptr noundef %7, ptr noundef @proto_register_docsis.ei, i32 noundef 4)
  %8 = load i32, ptr @proto_docsis, align 4
  %9 = call ptr @prefs_register_protocol(i32 noundef %8, ptr noundef null)
  store ptr %9, ptr %1, align 8
  %10 = load ptr, ptr %1, align 8
  call void @prefs_register_bool_preference(ptr noundef %10, ptr noundef @.str.136, ptr noundef @.str.137, ptr noundef @.str.138, ptr noundef @docsis_check_fcs)
  %11 = load ptr, ptr %1, align 8
  call void @prefs_register_bool_preference(ptr noundef %11, ptr noundef @.str.139, ptr noundef @.str.140, ptr noundef @.str.141, ptr noundef @docsis_dissect_encrypted_frames)
  %12 = load i32, ptr @proto_docsis, align 4
  %13 = call ptr @register_dissector(ptr noundef @.str.135, ptr noundef @dissect_docsis, i32 noundef %12)
  store ptr %13, ptr @docsis_handle, align 8
  call void @reassembly_table_register(ptr noundef @docsis_reassembly_table, ptr noundef @addresses_reassembly_table_functions)
  call void @llvm.lifetime.end.p0(i64 8, ptr %2) #4
  call void @llvm.lifetime.end.p0(i64 8, ptr %1) #4
  ret void
}