; Function Attrs: null_pointer_is_valid sspstrong uwtable
define hidden void @proto_register_docsis() local_unnamed_addr #0 {
  %1 = tail call i32 @proto_register_protocol(ptr noundef nonnull @.str.134, ptr noundef nonnull @.str.134, ptr noundef nonnull @.str.135)
  store i32 %1, ptr @proto_docsis, align 4
  tail call void @proto_register_field_array(i32 noundef %1, ptr noundef nonnull @proto_register_docsis.hf, i32 noundef 56)
  tail call void @proto_register_subtree_array(ptr noundef nonnull @proto_register_docsis.ett, i32 noundef 5)
  %2 = load i32, ptr @proto_docsis, align 4
  %3 = tail call ptr @expert_register_protocol(i32 noundef %2)
  tail call void @expert_register_field_array(ptr noundef %3, ptr noundef nonnull @proto_register_docsis.ei, i32 noundef 4)
  %4 = load i32, ptr @proto_docsis, align 4
  %5 = tail call ptr @prefs_register_protocol(i32 noundef %4, ptr noundef null)
  tail call void @prefs_register_bool_preference(ptr noundef %5, ptr noundef nonnull @.str.136, ptr noundef nonnull @.str.137, ptr noundef nonnull @.str.138, ptr noundef nonnull @docsis_check_fcs)
  tail call void @prefs_register_bool_preference(ptr noundef %5, ptr noundef nonnull @.str.139, ptr noundef nonnull @.str.140, ptr noundef nonnull @.str.141, ptr noundef nonnull @docsis_dissect_encrypted_frames)
  %6 = load i32, ptr @proto_docsis, align 4
  %7 = tail call ptr @register_dissector(ptr noundef nonnull @.str.135, ptr noundef nonnull @dissect_docsis, i32 noundef %6)
  store ptr %7, ptr @docsis_handle, align 8
  tail call void @reassembly_table_register(ptr noundef nonnull @docsis_reassembly_table, ptr noundef nonnull @addresses_reassembly_table_functions)
  ret void
}